
array.o:     file format elf32-littleriscv


Disassembly of section .text:

00000000 <main>:
   0:	fa010113          	addi	sp,sp,-96
   4:	04812e23          	sw	s0,92(sp)
   8:	06010413          	addi	s0,sp,96
   c:	fe042623          	sw	zero,-20(s0)
  10:	0740006f          	j	84 <.L2>

00000014 <.L3>:
  14:	fec42783          	lw	a5,-20(s0)
  18:	00279713          	slli	a4,a5,0x2
  1c:	fec42783          	lw	a5,-20(s0)
  20:	00279793          	slli	a5,a5,0x2
  24:	ff040693          	addi	a3,s0,-16
  28:	00f687b3          	add	a5,a3,a5
  2c:	fae7a823          	sw	a4,-80(a5)
  30:	fec42783          	lw	a5,-20(s0)
  34:	00279793          	slli	a5,a5,0x2
  38:	ff040713          	addi	a4,s0,-16
  3c:	00f707b3          	add	a5,a4,a5
  40:	fb07a783          	lw	a5,-80(a5)
  44:	fe842703          	lw	a4,-24(s0)
  48:	00f707b3          	add	a5,a4,a5
  4c:	fef42423          	sw	a5,-24(s0)
  50:	fe442703          	lw	a4,-28(s0)
  54:	fe842783          	lw	a5,-24(s0)
  58:	00f70733          	add	a4,a4,a5
  5c:	fec42783          	lw	a5,-20(s0)
  60:	00279793          	slli	a5,a5,0x2
  64:	ff040693          	addi	a3,s0,-16
  68:	00f687b3          	add	a5,a3,a5
  6c:	fb07a783          	lw	a5,-80(a5)
  70:	00f707b3          	add	a5,a4,a5
  74:	fef42223          	sw	a5,-28(s0)
  78:	fec42783          	lw	a5,-20(s0)
  7c:	00178793          	addi	a5,a5,1
  80:	fef42623          	sw	a5,-20(s0)

00000084 <.L2>:
  84:	fec42703          	lw	a4,-20(s0)     
  88:	00900793          	li	a5,9
  8c:	f8e7d4e3          	bge	a5,a4,14 <.L3>
  90:	fa042703          	lw	a4,-96(s0)
  94:	00900793          	li	a5,9
  98:	00e7ca63          	blt	a5,a4,ac <.L4>
  9c:	fa042783          	lw	a5,-96(s0)
  a0:	06378793          	addi	a5,a5,99
  a4:	fef42023          	sw	a5,-32(s0)
  a8:	00c0006f          	j	b4 <.L5>          

000000ac <.L4>:
  ac:	00400793          	li	a5,4
  b0:	fef42023          	sw	a5,-32(s0)

000000b4 <.L5>:
  b4:	fa442703          	lw	a4,-92(s0)        
  b8:	00a00793          	li	a5,10
  bc:	00f70c63          	beq	a4,a5,d4 <.L6>
  c0:	fa442783          	lw	a5,-92(s0)
  c4:	06f00713          	li	a4,111
  c8:	40f757b3          	sra	a5,a4,a5
  cc:	fcf42e23          	sw	a5,-36(s0)
  d0:	00c0006f          	j	dc <.L7>           

000000d4 <.L6>:
  d4:	00400793          	li	a5,4              
  d8:	fcf42e23          	sw	a5,-36(s0)        

000000dc <.L7>:
  dc:	fa842703          	lw	a4,-88(s0)     
  e0:	00a00793          	li	a5,10
  e4:	00e7d863          	bge	a5,a4,f4 <.L8>
  e8:	00400793          	li	a5,4
  ec:	fcf42c23          	sw	a5,-40(s0)
  f0:	0100006f          	j	100 <.L9>        

000000f4 <.L8>:
  f4:	fa842783          	lw	a5,-88(s0)       
  f8:	0de7c793          	xori	a5,a5,222
  fc:	fcf42c23          	sw	a5,-40(s0)            

00000100 <.L9>:
 100:	fac42703          	lw	a4,-84(s0)          
 104:	00c00793          	li	a5,12
 108:	00f71a63          	bne	a4,a5,11c <.L10>
 10c:	fac42783          	lw	a5,-84(s0)
 110:	14d7f793          	andi	a5,a5,333
 114:	fcf42a23          	sw	a5,-44(s0)
 118:	00c0006f          	j	124 <.L11>          

0000011c <.L10>:
 11c:	00400793          	li	a5,4                
 120:	fcf42a23          	sw	a5,-44(s0)         

00000124 <.L11>:
 124:	fb042703          	lw	a4,-80(s0)         
 128:	01000793          	li	a5,16        
 12c:	00f71a63          	bne	a4,a5,140 <.L12>
 130:	fb042783          	lw	a5,-80(s0)
 134:	1bc7e793          	ori	a5,a5,444
 138:	fcf42a23          	sw	a5,-44(s0)
 13c:	00c0006f          	j	148 <.L13>           

00000140 <.L12>:
 140:	00400793          	li	a5,4         
 144:	fcf42a23          	sw	a5,-44(s0)         

00000148 <.L13>:
 148:	fb442703          	lw	a4,-76(s0)
 14c:	ff500793          	li	a5,-11
 150:	00f74863          	blt	a4,a5,160 <.L14>
 154:	22b00793          	li	a5,555
 158:	fcf42823          	sw	a5,-48(s0)
 15c:	00c0006f          	j	168 <.L15>         

00000160 <.L14>:
 160:	00400793          	li	a5,4
 164:	fcf42823          	sw	a5,-48(s0)          

00000168 <.L15>:
 168:	fb842703          	lw	a4,-72(s0)
 16c:	01700793          	li	a5,23
 170:	00e7d863          	bge	a5,a4,180 <.L16>
 174:	29a00793          	li	a5,666
 178:	fcf42623          	sw	a5,-52(s0)
 17c:	00c0006f          	j	188 <.L17>            

00000180 <.L16>:
 180:	00400793          	li	a5,4
 184:	fcf42623          	sw	a5,-52(s0)            

00000188 <.L17>:
 188:	fe842703          	lw	a4,-24(s0)
 18c:	0b400793          	li	a5,180
 190:	00f71863          	bne	a4,a5,1a0 <.L18>
 194:	3e700793          	li	a5,999
 198:	fcf42423          	sw	a5,-56(s0)
 19c:	00c0006f          	j	1a8 <.L19>          

000001a0 <.L18>:
 1a0:	00400793          	li	a5,4
 1a4:	fcf42423          	sw	a5,-56(s0)        

000001a8 <.L19>:
 1a8:	00000793          	li	a5,0
 1ac:	00078513          	mv	a0,a5
 1b0:	05c12403          	lw	s0,92(sp)
 1b4:	06010113          	addi	sp,sp,96
 1b8:	00008067          	ret                      
